target datalayout = "e-m:e-p270:32:32-p271:32:32-p272:64:64-i64:64-i128:128-f80:128-n8:16:32:64-S128"
target triple = "x86_64-pc-linux-gnu"

%"class.OpenSubdiv::v3_6_0::Bfr::(anonymous namespace)::FacetArray" = type { ptr, i32, i32 }

; Function Attrs: mustprogress nounwind uwtable
define internal void @_ZN10OpenSubdiv6v3_6_03Bfr12_GLOBAL__N_110FacetArrayC2EPiii(ptr noundef nonnull align 8 dereferenceable(16) %0, ptr noundef %1, i32 noundef %2, i32 noundef %3) unnamed_addr #1 align 2 {
  %5 = alloca ptr, align 8
  %6 = alloca ptr, align 8
  %7 = alloca i32, align 4
  %8 = alloca i32, align 4
  store ptr %0, ptr %5, align 8
  store ptr %1, ptr %6, align 8
  store i32 %2, ptr %7, align 4
  store i32 %3, ptr %8, align 4
  %9 = load ptr, ptr %5, align 8
  %10 = getelementptr inbounds nuw %"class.OpenSubdiv::v3_6_0::Bfr::(anonymous namespace)::FacetArray", ptr %9, i32 0, i32 0
  %11 = load ptr, ptr %6, align 8
  store ptr %11, ptr %10, align 8
  %12 = getelementptr inbounds nuw %"class.OpenSubdiv::v3_6_0::Bfr::(anonymous namespace)::FacetArray", ptr %9, i32 0, i32 1
  %13 = load i32, ptr %7, align 4
  store i32 %13, ptr %12, align 8
  %14 = getelementptr inbounds nuw %"class.OpenSubdiv::v3_6_0::Bfr::(anonymous namespace)::FacetArray", ptr %9, i32 0, i32 2
  %15 = load i32, ptr %8, align 4
  store i32 %15, ptr %14, align 4
  ret void
}

; Function Attrs: mustprogress nounwind uwtable
define internal void @_ZN10OpenSubdiv6v3_6_03Bfr12_GLOBAL__N_110FacetArrayD2Ev(ptr noundef nonnull align 8 dereferenceable(16) %0) unnamed_addr #1 align 2 {
  %2 = alloca ptr, align 8
  store ptr %0, ptr %2, align 8
  ret void
}

; Function Attrs: mustprogress uwtable
define internal void @_ZN10OpenSubdiv6v3_6_03Bfr12_GLOBAL__N_110FacetArrayplEi(ptr dead_on_unwind noalias writable sret(%"class.OpenSubdiv::v3_6_0::Bfr::(anonymous namespace)::FacetArray") align 8 %0, ptr noundef nonnull align 8 dereferenceable(16) %1, i32 noundef %2) #0 align 2 {
  %4 = alloca ptr, align 8
  %5 = alloca ptr, align 8
  %6 = alloca i32, align 4
  store ptr %0, ptr %4, align 8
  store ptr %1, ptr %5, align 8
  store i32 %2, ptr %6, align 4
  %7 = load ptr, ptr %5, align 8
  %8 = getelementptr inbounds nuw %"class.OpenSubdiv::v3_6_0::Bfr::(anonymous namespace)::FacetArray", ptr %7, i32 0, i32 0
  %9 = load ptr, ptr %8, align 8
  %10 = load i32, ptr %6, align 4
  %11 = getelementptr inbounds nuw %"class.OpenSubdiv::v3_6_0::Bfr::(anonymous namespace)::FacetArray", ptr %7, i32 0, i32 2
  %12 = load i32, ptr %11, align 4
  %13 = mul nsw i32 %10, %12
  %14 = sext i32 %13 to i64
  %15 = getelementptr inbounds i32, ptr %9, i64 %14
  %16 = getelementptr inbounds nuw %"class.OpenSubdiv::v3_6_0::Bfr::(anonymous namespace)::FacetArray", ptr %7, i32 0, i32 1
  %17 = load i32, ptr %16, align 8
  %18 = getelementptr inbounds nuw %"class.OpenSubdiv::v3_6_0::Bfr::(anonymous namespace)::FacetArray", ptr %7, i32 0, i32 2
  %19 = load i32, ptr %18, align 4
  call void @_ZN10OpenSubdiv6v3_6_03Bfr12_GLOBAL__N_110FacetArrayC2EPiii(ptr noundef nonnull align 8 dereferenceable(16) %0, ptr noundef %15, i32 noundef %17, i32 noundef %19)
  ret void
}

; Function Attrs: mustprogress uwtable
define internal noundef i32 @_ZN10OpenSubdiv6v3_6_03Bfr4quad16GetUniformFacetsEibNS1_12_GLOBAL__N_110FacetArrayE(i32 noundef %0, i1 noundef zeroext %1, ptr noundef %2) #0 align 2 personality ptr @__gxx_personality_v0 {
  %4 = alloca i32, align 4
  %5 = alloca i8, align 1
  %6 = alloca ptr, align 8
  %7 = alloca i32, align 4
  %8 = alloca i32, align 4
  %9 = alloca i32, align 4
  %10 = alloca i32, align 4
  %11 = alloca %"class.OpenSubdiv::v3_6_0::Bfr::(anonymous namespace)::FacetArray", align 8
  %12 = alloca ptr, align 8
  %13 = alloca i32, align 4
  store i32 %0, ptr %4, align 4
  %14 = zext i1 %1 to i8
  store i8 %14, ptr %5, align 1
  store ptr %2, ptr %6, align 8
  %15 = load i32, ptr %4, align 4
  %16 = add nsw i32 %15, 1
  %17 = sdiv i32 %16, 2
  store i32 %17, ptr %7, align 4
  store i32 0, ptr %8, align 4
  store i32 0, ptr %9, align 4
  store i32 0, ptr %10, align 4
  br label %18

18:                                               ; preds = %37, %3
  %19 = load i32, ptr %10, align 4
  %20 = load i32, ptr %7, align 4
  %21 = icmp slt i32 %19, %20
  br i1 %21, label %22, label %46

22:                                               ; preds = %18
  %23 = load i32, ptr %4, align 4
  %24 = load i32, ptr %4, align 4
  %25 = load i32, ptr %9, align 4
  %26 = load i8, ptr %5, align 1
  %27 = trunc i8 %26 to i1
  %28 = load i32, ptr %8, align 4
  call void @_ZN10OpenSubdiv6v3_6_03Bfr12_GLOBAL__N_110FacetArrayplEi(ptr dead_on_unwind writable sret(%"class.OpenSubdiv::v3_6_0::Bfr::(anonymous namespace)::FacetArray") align 8 %11, ptr noundef nonnull align 8 dereferenceable(16) %2, i32 noundef %28)
  %29 = invoke noundef i32 @_ZN10OpenSubdiv6v3_6_03Bfr4quad21getInteriorRingFacetsEiiibNS1_12_GLOBAL__N_110FacetArrayE(i32 noundef %23, i32 noundef %24, i32 noundef %25, i1 noundef zeroext %27, ptr noundef %11)
          to label %30 unwind label %42

30:                                               ; preds = %22
  %31 = load i32, ptr %8, align 4
  %32 = add nsw i32 %31, %29
  store i32 %32, ptr %8, align 4
  call void @_ZN10OpenSubdiv6v3_6_03Bfr12_GLOBAL__N_110FacetArrayD2Ev(ptr noundef nonnull align 8 dereferenceable(16) %11) #8
  %33 = load i32, ptr %4, align 4
  %34 = mul nsw i32 4, %33
  %35 = load i32, ptr %9, align 4
  %36 = add nsw i32 %35, %34
  store i32 %36, ptr %9, align 4
  br label %37

37:                                               ; preds = %30
  %38 = load i32, ptr %10, align 4
  %39 = add nsw i32 %38, 1
  store i32 %39, ptr %10, align 4
  %40 = load i32, ptr %4, align 4
  %41 = sub nsw i32 %40, 2
  store i32 %41, ptr %4, align 4
  br label %18, !llvm.loop !32

42:                                               ; preds = %22
  %43 = landingpad { ptr, i32 }
          cleanup
  %44 = extractvalue { ptr, i32 } %43, 0
  store ptr %44, ptr %12, align 8
  %45 = extractvalue { ptr, i32 } %43, 1
  store i32 %45, ptr %13, align 4
  call void @_ZN10OpenSubdiv6v3_6_03Bfr12_GLOBAL__N_110FacetArrayD2Ev(ptr noundef nonnull align 8 dereferenceable(16) %11) #8
  br label %48

46:                                               ; preds = %18
  %47 = load i32, ptr %8, align 4
  ret i32 %47

48:                                               ; preds = %42
  %49 = load ptr, ptr %12, align 8
  %50 = load i32, ptr %13, align 4
  %51 = insertvalue { ptr, i32 } poison, ptr %49, 0
  %52 = insertvalue { ptr, i32 } %51, i32 %50, 1
  resume { ptr, i32 } %52
}