; Function Attrs: mustprogress nofree norecurse nosync nounwind memory(write, argmem: readwrite, inaccessiblemem: readwrite) uwtable
define internal fastcc noundef i32 @_ZN10OpenSubdiv6v3_6_03Bfr4quad16GetUniformFacetsEibNS1_12_GLOBAL__N_110FacetArrayE(i32 noundef %0, i1 noundef zeroext %1, ptr nocapture noundef readonly %2) unnamed_addr #14 align 2 personality ptr @__gxx_personality_v0 {
  %4 = alloca %"class.OpenSubdiv::v3_6_0::Bfr::(anonymous namespace)::FacetArray", align 8
  %5 = icmp sgt i32 %0, 0
  br i1 %5, label %.lr.ph, label %._crit_edge

.lr.ph:                                           ; preds = %3
  %6 = add nuw nsw i32 %0, 1
  %7 = lshr i32 %6, 1
  %8 = getelementptr inbounds nuw i8, ptr %2, i64 12
  %9 = getelementptr inbounds nuw i8, ptr %2, i64 8
  %10 = getelementptr inbounds nuw i8, ptr %4, i64 8
  %11 = getelementptr inbounds nuw i8, ptr %4, i64 12
  br label %12

12:                                               ; preds = %.lr.ph, %12
  %.021 = phi i32 [ %0, %.lr.ph ], [ %24, %12 ]
  %.01520 = phi i32 [ 0, %.lr.ph ], [ %20, %12 ]
  %.01619 = phi i32 [ 0, %.lr.ph ], [ %23, %12 ]
  %.01718 = phi i32 [ 0, %.lr.ph ], [ %22, %12 ]
  tail call void @llvm.experimental.noalias.scope.decl(metadata !37)
  %13 = load ptr, ptr %2, align 8, !noalias !37
  %14 = load i32, ptr %8, align 4, !noalias !37
  %15 = mul nsw i32 %14, %.01520
  %16 = sext i32 %15 to i64
  %17 = getelementptr inbounds i32, ptr %13, i64 %16
  %18 = load i32, ptr %9, align 8, !noalias !37
  store ptr %17, ptr %4, align 8, !alias.scope !37
  store i32 %18, ptr %10, align 8, !alias.scope !37
  store i32 %14, ptr %11, align 4, !alias.scope !37
  %19 = call fastcc noundef i32 @_ZN10OpenSubdiv6v3_6_03Bfr4quad21getInteriorRingFacetsEiiibNS1_12_GLOBAL__N_110FacetArrayE(i32 noundef %.021, i32 noundef %.021, i32 noundef %.01718, i1 noundef zeroext %1, ptr noundef nonnull %4)
  %20 = add nsw i32 %19, %.01520
  %21 = shl nsw i32 %.021, 2
  %22 = add nsw i32 %21, %.01718
  %23 = add nuw nsw i32 %.01619, 1
  %24 = add nsw i32 %.021, -2
  %exitcond.not = icmp eq i32 %23, %7
  br i1 %exitcond.not, label %._crit_edge, label %12, !llvm.loop !40

._crit_edge:                                      ; preds = %12, %3
  %.015.lcssa = phi i32 [ 0, %3 ], [ %20, %12 ]
  ret i32 %.015.lcssa
}